Certificate:
    Data:
        Version: 3 (0x2)
        Serial Number: 1 (0x1)
    Signature Algorithm: sha256WithRSAEncryption
        Issuer: DC=com, DC=mercadona, O=Mercadona S.A., OU=Mercadona Online SRE, CN=Mercadona Online Root CA
        Validity
            Not Before: Mar 20 11:07:53 2018 GMT
            Not After : Mar 19 11:07:53 2028 GMT
        Subject: DC=com, DC=mercadona, O=Mercadona S.A., OU=Mercadona Online SRE, CN=Mercadona Online Root CA
        Subject Public Key Info:
            Public Key Algorithm: rsaEncryption
                Public-Key: (2048 bit)
                Modulus:
                    00:bd:de:13:d0:7b:87:d4:a4:29:84:49:cd:47:7a:
                    54:f2:0e:72:53:2c:35:91:f6:ce:50:b5:68:e8:85:
                    73:92:ba:3a:c0:25:52:d6:10:90:4b:6d:c8:16:bd:
                    c7:e7:3c:f2:a4:2d:9a:89:01:08:6f:e0:86:2c:dd:
                    60:9e:ca:4d:37:fa:c6:8f:31:3b:38:ae:6c:8a:43:
                    72:1b:fe:ca:f5:a3:44:33:94:72:c7:48:4a:8b:56:
                    19:dd:be:78:2e:a4:b0:9d:3a:05:7a:d1:84:e1:17:
                    79:53:89:cb:74:28:fe:b8:d1:df:c0:6e:92:21:a2:
                    5e:f8:e8:3a:b4:f1:8b:56:c3:31:6b:fd:e4:df:15:
                    fd:86:2f:64:fb:59:94:f9:c5:b4:1d:1c:87:43:28:
                    f7:6e:95:3f:5a:da:61:e7:0d:06:b4:c4:a6:7a:0d:
                    04:9c:56:c8:e5:4b:c2:09:ac:23:72:44:62:80:da:
                    5a:9f:16:47:87:9f:ed:b1:54:75:c4:27:df:fe:41:
                    5f:6b:f3:83:5f:a7:66:2e:cb:ec:5e:e7:a3:2f:fe:
                    6c:1c:df:82:36:83:ba:11:c9:cc:9b:51:89:4f:ec:
                    5e:59:a4:44:1a:f5:e8:f1:86:ce:be:ed:49:78:5b:
                    61:25:8f:ee:5d:7c:c1:0e:71:95:9f:1d:83:ab:38:
                    9e:3b
                Exponent: 65537 (0x10001)
        X509v3 extensions:
            X509v3 Key Usage: critical
                Certificate Sign, CRL Sign
            X509v3 Basic Constraints: critical
                CA:TRUE
            X509v3 Subject Key Identifier: 
                86:43:F2:8B:6F:21:6B:E8:58:13:49:93:66:69:B4:FA:29:B3:6E:AB
            X509v3 Authority Key Identifier: 
                keyid:86:43:F2:8B:6F:21:6B:E8:58:13:49:93:66:69:B4:FA:29:B3:6E:AB

    Signature Algorithm: sha256WithRSAEncryption
         16:9f:0c:8a:22:f4:11:42:9b:85:cd:8a:79:39:12:77:04:a1:
         a6:34:ac:ba:39:99:9c:04:d1:9d:1d:61:63:ab:62:f9:3f:60:
         18:c7:9f:34:7e:2b:b4:9b:08:20:5c:23:37:eb:ad:84:ee:64:
         8c:48:af:19:5c:c7:0c:dc:e5:bf:d9:11:ea:49:21:cf:f5:d4:
         9d:67:fe:20:83:25:20:2e:f2:e5:76:ca:67:68:18:5d:e7:fe:
         d8:fc:92:a4:5e:3a:ad:52:d8:c3:23:bb:4d:eb:27:84:03:2e:
         a4:bd:2d:f9:32:92:d0:0b:7e:34:6f:19:12:16:93:29:c0:31:
         db:d5:64:65:f5:e5:f8:33:e7:3a:41:f6:62:6b:c9:8a:7f:1a:
         45:02:47:55:a8:f7:10:d4:c1:8f:a5:e5:30:0e:da:05:72:7a:
         37:f5:41:32:15:21:bd:7b:7c:a8:8e:da:ce:8f:ec:80:69:73:
         e4:df:ab:58:64:27:c9:7c:c9:e4:2f:39:00:14:98:60:41:8f:
         38:4c:01:b9:f3:7e:45:41:95:97:6c:08:32:9f:87:5f:0d:58:
         62:26:81:1a:22:ea:49:fd:43:8a:c7:19:b4:7c:ea:a4:57:19:
         08:e9:53:a0:c8:2c:93:a9:f4:bd:5d:9f:a1:2f:d6:bc:08:8f:
         de:97:33:15
-----BEGIN CERTIFICATE-----
MIID9jCCAt6gAwIBAgIBATANBgkqhkiG9w0BAQsFADCBizETMBEGCgmSJomT8ixk
ARkWA2NvbTEZMBcGCgmSJomT8ixkARkWCW1lcmNhZG9uYTEXMBUGA1UECgwOTWVy
Y2Fkb25hIFMuQS4xHTAbBgNVBAsMFE1lcmNhZG9uYSBPbmxpbmUgU1JFMSEwHwYD
VQQDDBhNZXJjYWRvbmEgT25saW5lIFJvb3QgQ0EwHhcNMTgwMzIwMTEwNzUzWhcN
MjgwMzE5MTEwNzUzWjCBizETMBEGCgmSJomT8ixkARkWA2NvbTEZMBcGCgmSJomT
8ixkARkWCW1lcmNhZG9uYTEXMBUGA1UECgwOTWVyY2Fkb25hIFMuQS4xHTAbBgNV
BAsMFE1lcmNhZG9uYSBPbmxpbmUgU1JFMSEwHwYDVQQDDBhNZXJjYWRvbmEgT25s
aW5lIFJvb3QgQ0EwggEiMA0GCSqGSIb3DQEBAQUAA4IBDwAwggEKAoIBAQC93hPQ
e4fUpCmESc1HelTyDnJTLDWR9s5QtWjohXOSujrAJVLWEJBLbcgWvcfnPPKkLZqJ
AQhv4IYs3WCeyk03+saPMTs4rmyKQ3Ib/sr1o0QzlHLHSEqLVhndvngupLCdOgV6
0YThF3lTict0KP640d/AbpIhol746Dq08YtWwzFr/eTfFf2GL2T7WZT5xbQdHIdD
KPdulT9a2mHnDQa0xKZ6DQScVsjlS8IJrCNyRGKA2lqfFkeHn+2xVHXEJ9/+QV9r
84Nfp2Yuy+xe56Mv/mwc34I2g7oRycybUYlP7F5ZpEQa9ejxhs6+7Ul4W2Elj+5d
fMEOcZWfHYOrOJ47AgMBAAGjYzBhMA4GA1UdDwEB/wQEAwIBBjAPBgNVHRMBAf8E
BTADAQH/MB0GA1UdDgQWBBSGQ/KLbyFr6FgTSZNmabT6KbNuqzAfBgNVHSMEGDAW
gBSGQ/KLbyFr6FgTSZNmabT6KbNuqzANBgkqhkiG9w0BAQsFAAOCAQEAFp8MiiL0
EUKbhc2KeTkSdwShpjSsujmZnATRnR1hY6ti+T9gGMefNH4rtJsIIFwjN+uthO5k
jEivGVzHDNzlv9kR6kkhz/XUnWf+IIMlIC7y5XbKZ2gYXef+2PySpF46rVLYwyO7
TesnhAMupL0t+TKS0At+NG8ZEhaTKcAx29VkZfXl+DPnOkH2YmvJin8aRQJHVaj3
ENTBj6XlMA7aBXJ6N/VBMhUhvXt8qI7azo/sgGlz5N+rWGQnyXzJ5C85ABSYYEGP
OEwBufN+RUGVl2wIMp+HXw1YYiaBGiLqSf1DiscZtHzqpFcZCOlToMgsk6n0vV2f
oS/WvAiP3pczFQ==
-----END CERTIFICATE-----
