Certificate:
    Data:
        Version: 3 (0x2)
        Serial Number: 2 (0x2)
    Signature Algorithm: sha256WithRSAEncryption
        Issuer: DC=com, DC=mercadona, O=Mercadona S.A., OU=Mercadona Online SRE, CN=Mercadona Online Root CA
        Validity
            Not Before: Mar 20 11:09:53 2018 GMT
            Not After : Mar 19 11:09:53 2028 GMT
        Subject: DC=com, DC=mercadona, O=Mercadona S.A., OU=Mercadona Online SRE, CN=Mercadona Online Signing CA
        Subject Public Key Info:
            Public Key Algorithm: rsaEncryption
                Public-Key: (2048 bit)
                Modulus:
                    00:d8:75:ae:72:92:d4:30:e1:fe:86:54:44:66:a8:
                    2a:82:a0:b6:65:51:37:92:d2:f5:9a:62:d4:a3:99:
                    cd:aa:23:2b:cb:c1:99:a5:2b:56:72:a7:aa:ef:10:
                    3d:a4:7a:90:47:7e:ea:13:ec:0a:39:fa:c8:87:81:
                    77:66:bc:16:4b:49:e7:b3:45:fd:f0:af:60:6b:ee:
                    46:e7:7d:56:64:fb:17:65:07:7f:7a:82:53:c7:b2:
                    e2:32:fe:c9:6b:10:1f:82:50:93:3b:8a:3e:8a:45:
                    d2:1f:68:af:60:cb:58:df:37:9a:12:2c:bf:c5:87:
                    cb:d4:38:0b:e2:14:48:75:6c:29:59:2c:d2:41:be:
                    2d:25:8c:24:80:44:a2:4e:76:1f:43:3b:ab:db:40:
                    7b:6b:fb:b0:fc:35:b3:cf:60:07:e1:72:03:00:c2:
                    1c:de:a7:3d:1f:9d:e2:77:4a:f8:08:b0:b7:be:88:
                    34:91:44:75:36:0f:30:b8:3d:19:34:f3:aa:0e:89:
                    ec:61:89:68:5c:10:88:2c:1b:5f:b8:fe:bd:b1:8f:
                    8d:e2:44:df:73:9a:b1:03:41:2a:22:b8:31:e3:e9:
                    d9:62:53:58:70:c7:20:ba:de:e2:03:d1:bd:d2:d5:
                    8d:26:7a:f2:70:eb:4f:94:ee:fa:95:b5:ea:3d:9c:
                    53:87
                Exponent: 65537 (0x10001)
        X509v3 extensions:
            X509v3 Key Usage: critical
                Certificate Sign, CRL Sign
            X509v3 Basic Constraints: critical
                CA:TRUE, pathlen:0
            X509v3 Subject Key Identifier: 
                6C:36:FF:F3:3B:A8:9E:91:AF:1D:97:AC:98:D6:74:6E:FB:4C:8A:53
            X509v3 Authority Key Identifier: 
                keyid:86:43:F2:8B:6F:21:6B:E8:58:13:49:93:66:69:B4:FA:29:B3:6E:AB

    Signature Algorithm: sha256WithRSAEncryption
         7c:d2:61:fc:1f:60:74:3e:36:d7:bd:48:13:7f:a8:e6:0c:0e:
         87:13:b0:45:0b:ec:13:cd:83:e5:d6:e1:e5:75:fb:4b:61:2d:
         a2:1f:72:ec:b0:41:c8:3e:5c:21:99:36:a6:42:5b:ac:f2:f9:
         63:99:68:73:ae:a5:e3:83:f8:07:37:6d:69:0e:1e:a5:76:9b:
         53:2a:e5:1b:7f:2b:f9:17:ad:fe:ca:ef:04:f7:c5:2e:d2:9a:
         23:3d:a8:93:ad:e7:63:5d:b7:cd:af:e7:b5:02:58:70:8b:05:
         d6:c2:23:0e:2a:c2:5e:09:a9:32:94:5d:25:ff:8e:f4:5f:e4:
         40:ee:98:99:8c:39:a2:09:b3:d4:87:f6:b3:e0:88:4d:0a:14:
         91:7f:c3:41:a2:a2:86:1b:4a:c4:2a:41:3e:61:6f:84:1c:df:
         9a:c5:a5:db:dd:29:09:a0:fb:b6:b1:0c:89:11:a3:e4:0d:b6:
         74:8c:55:3e:3f:8a:d8:b7:78:34:c1:04:ea:26:b6:70:62:37:
         f1:80:f2:ba:19:a8:4d:a2:bf:97:e3:71:9a:61:75:3a:81:8e:
         ea:61:7a:94:86:1f:ae:02:0a:d9:4a:1e:41:14:90:7e:d0:8d:
         89:97:ff:06:a6:06:a4:be:13:cb:0e:ef:61:0c:01:60:a2:0e:
         47:6e:a9:e3
-----BEGIN CERTIFICATE-----
MIID/DCCAuSgAwIBAgIBAjANBgkqhkiG9w0BAQsFADCBizETMBEGCgmSJomT8ixk
ARkWA2NvbTEZMBcGCgmSJomT8ixkARkWCW1lcmNhZG9uYTEXMBUGA1UECgwOTWVy
Y2Fkb25hIFMuQS4xHTAbBgNVBAsMFE1lcmNhZG9uYSBPbmxpbmUgU1JFMSEwHwYD
VQQDDBhNZXJjYWRvbmEgT25saW5lIFJvb3QgQ0EwHhcNMTgwMzIwMTEwOTUzWhcN
MjgwMzE5MTEwOTUzWjCBjjETMBEGCgmSJomT8ixkARkWA2NvbTEZMBcGCgmSJomT
8ixkARkWCW1lcmNhZG9uYTEXMBUGA1UECgwOTWVyY2Fkb25hIFMuQS4xHTAbBgNV
BAsMFE1lcmNhZG9uYSBPbmxpbmUgU1JFMSQwIgYDVQQDDBtNZXJjYWRvbmEgT25s
aW5lIFNpZ25pbmcgQ0EwggEiMA0GCSqGSIb3DQEBAQUAA4IBDwAwggEKAoIBAQDY
da5yktQw4f6GVERmqCqCoLZlUTeS0vWaYtSjmc2qIyvLwZmlK1Zyp6rvED2kepBH
fuoT7Ao5+siHgXdmvBZLSeezRf3wr2Br7kbnfVZk+xdlB396glPHsuIy/slrEB+C
UJM7ij6KRdIfaK9gy1jfN5oSLL/Fh8vUOAviFEh1bClZLNJBvi0ljCSARKJOdh9D
O6vbQHtr+7D8NbPPYAfhcgMAwhzepz0fneJ3SvgIsLe+iDSRRHU2DzC4PRk086oO
iexhiWhcEIgsG1+4/r2xj43iRN9zmrEDQSoiuDHj6dliU1hwxyC63uID0b3S1Y0m
evJw60+U7vqVteo9nFOHAgMBAAGjZjBkMA4GA1UdDwEB/wQEAwIBBjASBgNVHRMB
Af8ECDAGAQH/AgEAMB0GA1UdDgQWBBRsNv/zO6ieka8dl6yY1nRu+0yKUzAfBgNV
HSMEGDAWgBSGQ/KLbyFr6FgTSZNmabT6KbNuqzANBgkqhkiG9w0BAQsFAAOCAQEA
fNJh/B9gdD42171IE3+o5gwOhxOwRQvsE82D5dbh5XX7S2Etoh9y7LBByD5cIZk2
pkJbrPL5Y5loc66l44P4BzdtaQ4epXabUyrlG38r+Ret/srvBPfFLtKaIz2ok63n
Y123za/ntQJYcIsF1sIjDirCXgmpMpRdJf+O9F/kQO6YmYw5ogmz1If2s+CITQoU
kX/DQaKihhtKxCpBPmFvhBzfmsWl290pCaD7trEMiRGj5A22dIxVPj+K2Ld4NMEE
6ia2cGI38YDyuhmoTaK/l+NxmmF1OoGO6mF6lIYfrgIK2UoeQRSQftCNiZf/BqYG
pL4Tyw7vYQwBYKIOR26p4w==
-----END CERTIFICATE-----
